target datalayout = "e-m:e-p270:32:32-p271:32:32-p272:64:64-i64:64-i128:128-f80:128-n8:16:32:64-S128"
target triple = "x86_64-pc-linux-gnu"

%struct._dcerpc_info = type { ptr, i32, i64, i8, i8, i8, i32, i32, i32, i32, i32, i32, i32, i32, ptr, ptr, ptr, ptr, %struct.anon }
%struct.anon = type { i8, ptr, ptr, ptr, i8 }

@ett_butc_tc_dumpStat = internal global i32 0, align 4
@hf_butc_tc_dumpStat_dumpID = internal global i32 0, align 4
@hf_butc_tc_dumpStat_bytesDumped = internal global i32 0, align 4
@hf_butc_tc_dumpStat_volumeBeingDumped = internal global i32 0, align 4
@hf_butc_tc_dumpStat_numVolErrs = internal global i32 0, align 4
@hf_butc_tc_dumpStat_flags = internal global i32 0, align 4
@hf_butc_tc_dumpStat_spare1 = internal global i32 0, align 4
@hf_butc_tc_dumpStat_spare2 = internal global i32 0, align 4
@hf_butc_tc_dumpStat_spare3 = internal global i32 0, align 4
@hf_butc_tc_dumpStat_spare4 = internal global i32 0, align 4

; Function Attrs: null_pointer_is_valid sspstrong uwtable
define internal i32 @butc_dissect_uint32(ptr noundef %0, i32 noundef %1, ptr noundef %2, ptr noundef %3, ptr noundef %4, ptr noundef %5, i32 noundef %6, i32 noundef %7) #0 {
  %9 = alloca ptr, align 8
  %10 = alloca i32, align 4
  %11 = alloca ptr, align 8
  %12 = alloca ptr, align 8
  %13 = alloca ptr, align 8
  %14 = alloca ptr, align 8
  %15 = alloca i32, align 4
  %16 = alloca i32, align 4
  store ptr %0, ptr %9, align 8
  store i32 %1, ptr %10, align 4
  store ptr %2, ptr %11, align 8
  store ptr %3, ptr %12, align 8
  store ptr %4, ptr %13, align 8
  store ptr %5, ptr %14, align 8
  store i32 %6, ptr %15, align 4
  store i32 %7, ptr %16, align 4
  %17 = load ptr, ptr %9, align 8
  %18 = load i32, ptr %10, align 4
  %19 = load ptr, ptr %11, align 8
  %20 = load ptr, ptr %12, align 8
  %21 = load ptr, ptr %13, align 8
  %22 = load ptr, ptr %14, align 8
  %23 = load i32, ptr %15, align 4
  %24 = call i32 @dissect_ndr_uint32(ptr noundef %17, i32 noundef %18, ptr noundef %19, ptr noundef %20, ptr noundef %21, ptr noundef %22, i32 noundef %23, ptr noundef null)
  store i32 %24, ptr %10, align 4
  %25 = load i32, ptr %10, align 4
  ret i32 %25
}

; Function Attrs: null_pointer_is_valid sspstrong uwtable
define internal i32 @butc_dissect_udlong(ptr noundef %0, i32 noundef %1, ptr noundef %2, ptr noundef %3, ptr noundef %4, ptr noundef %5, i32 noundef %6, i32 noundef %7) #0 {
  %9 = alloca ptr, align 8
  %10 = alloca i32, align 4
  %11 = alloca ptr, align 8
  %12 = alloca ptr, align 8
  %13 = alloca ptr, align 8
  %14 = alloca ptr, align 8
  %15 = alloca i32, align 4
  %16 = alloca i32, align 4
  store ptr %0, ptr %9, align 8
  store i32 %1, ptr %10, align 4
  store ptr %2, ptr %11, align 8
  store ptr %3, ptr %12, align 8
  store ptr %4, ptr %13, align 8
  store ptr %5, ptr %14, align 8
  store i32 %6, ptr %15, align 4
  store i32 %7, ptr %16, align 4
  %17 = load ptr, ptr %9, align 8
  %18 = load i32, ptr %10, align 4
  %19 = load ptr, ptr %11, align 8
  %20 = load ptr, ptr %12, align 8
  %21 = load ptr, ptr %13, align 8
  %22 = load ptr, ptr %14, align 8
  %23 = load i32, ptr %15, align 4
  %24 = call i32 @dissect_ndr_duint32(ptr noundef %17, i32 noundef %18, ptr noundef %19, ptr noundef %20, ptr noundef %21, ptr noundef %22, i32 noundef %23, ptr noundef null)
  store i32 %24, ptr %10, align 4
  %25 = load i32, ptr %10, align 4
  ret i32 %25
}

; Function Attrs: null_pointer_is_valid sspstrong uwtable
define internal i32 @butc_dissect_int32(ptr noundef %0, i32 noundef %1, ptr noundef %2, ptr noundef %3, ptr noundef %4, ptr noundef %5, i32 noundef %6, i32 noundef %7) #0 {
  %9 = alloca ptr, align 8
  %10 = alloca i32, align 4
  %11 = alloca ptr, align 8
  %12 = alloca ptr, align 8
  %13 = alloca ptr, align 8
  %14 = alloca ptr, align 8
  %15 = alloca i32, align 4
  %16 = alloca i32, align 4
  store ptr %0, ptr %9, align 8
  store i32 %1, ptr %10, align 4
  store ptr %2, ptr %11, align 8
  store ptr %3, ptr %12, align 8
  store ptr %4, ptr %13, align 8
  store ptr %5, ptr %14, align 8
  store i32 %6, ptr %15, align 4
  store i32 %7, ptr %16, align 4
  %17 = load ptr, ptr %9, align 8
  %18 = load i32, ptr %10, align 4
  %19 = load ptr, ptr %11, align 8
  %20 = load ptr, ptr %12, align 8
  %21 = load ptr, ptr %13, align 8
  %22 = load ptr, ptr %14, align 8
  %23 = load i32, ptr %15, align 4
  %24 = call i32 @dissect_ndr_uint32(ptr noundef %17, i32 noundef %18, ptr noundef %19, ptr noundef %20, ptr noundef %21, ptr noundef %22, i32 noundef %23, ptr noundef null)
  store i32 %24, ptr %10, align 4
  %25 = load i32, ptr %10, align 4
  ret i32 %25
}

; Function Attrs: null_pointer_is_valid sspstrong uwtable
define internal i32 @butc_dissect_tc_dumpStat_spare4(ptr noundef %0, i32 noundef %1, ptr noundef %2, ptr noundef %3, ptr noundef %4, ptr noundef %5) #0 {
  %7 = alloca ptr, align 8
  %8 = alloca i32, align 4
  %9 = alloca ptr, align 8
  %10 = alloca ptr, align 8
  %11 = alloca ptr, align 8
  %12 = alloca ptr, align 8
  %13 = alloca i32, align 4
  store ptr %0, ptr %7, align 8
  store i32 %1, ptr %8, align 4
  store ptr %2, ptr %9, align 8
  store ptr %3, ptr %10, align 8
  store ptr %4, ptr %11, align 8
  store ptr %5, ptr %12, align 8
  call void @llvm.lifetime.start.p0(i64 4, ptr %13) #4
  store i32 0, ptr %13, align 4
  %14 = load ptr, ptr %7, align 8
  %15 = load i32, ptr %8, align 4
  %16 = load ptr, ptr %9, align 8
  %17 = load ptr, ptr %10, align 8
  %18 = load ptr, ptr %11, align 8
  %19 = load ptr, ptr %12, align 8
  %20 = load i32, ptr @hf_butc_tc_dumpStat_spare4, align 4
  %21 = load i32, ptr %13, align 4
  %22 = call i32 @butc_dissect_uint32(ptr noundef %14, i32 noundef %15, ptr noundef %16, ptr noundef %17, ptr noundef %18, ptr noundef %19, i32 noundef %20, i32 noundef %21)
  store i32 %22, ptr %8, align 4
  %23 = load i32, ptr %8, align 4
  call void @llvm.lifetime.end.p0(i64 4, ptr %13) #4
  ret i32 %23
}

; Function Attrs: null_pointer_is_valid sspstrong uwtable
define internal i32 @butc_dissect_tc_dumpStat_spare3(ptr noundef %0, i32 noundef %1, ptr noundef %2, ptr noundef %3, ptr noundef %4, ptr noundef %5) #0 {
  %7 = alloca ptr, align 8
  %8 = alloca i32, align 4
  %9 = alloca ptr, align 8
  %10 = alloca ptr, align 8
  %11 = alloca ptr, align 8
  %12 = alloca ptr, align 8
  %13 = alloca i32, align 4
  store ptr %0, ptr %7, align 8
  store i32 %1, ptr %8, align 4
  store ptr %2, ptr %9, align 8
  store ptr %3, ptr %10, align 8
  store ptr %4, ptr %11, align 8
  store ptr %5, ptr %12, align 8
  call void @llvm.lifetime.start.p0(i64 4, ptr %13) #4
  store i32 0, ptr %13, align 4
  %14 = load ptr, ptr %7, align 8
  %15 = load i32, ptr %8, align 4
  %16 = load ptr, ptr %9, align 8
  %17 = load ptr, ptr %10, align 8
  %18 = load ptr, ptr %11, align 8
  %19 = load ptr, ptr %12, align 8
  %20 = load i32, ptr @hf_butc_tc_dumpStat_spare3, align 4
  %21 = load i32, ptr %13, align 4
  %22 = call i32 @butc_dissect_uint32(ptr noundef %14, i32 noundef %15, ptr noundef %16, ptr noundef %17, ptr noundef %18, ptr noundef %19, i32 noundef %20, i32 noundef %21)
  store i32 %22, ptr %8, align 4
  %23 = load i32, ptr %8, align 4
  call void @llvm.lifetime.end.p0(i64 4, ptr %13) #4
  ret i32 %23
}

; Function Attrs: null_pointer_is_valid sspstrong uwtable
define internal i32 @butc_dissect_tc_dumpStat_spare2(ptr noundef %0, i32 noundef %1, ptr noundef %2, ptr noundef %3, ptr noundef %4, ptr noundef %5) #0 {
  %7 = alloca ptr, align 8
  %8 = alloca i32, align 4
  %9 = alloca ptr, align 8
  %10 = alloca ptr, align 8
  %11 = alloca ptr, align 8
  %12 = alloca ptr, align 8
  %13 = alloca i32, align 4
  store ptr %0, ptr %7, align 8
  store i32 %1, ptr %8, align 4
  store ptr %2, ptr %9, align 8
  store ptr %3, ptr %10, align 8
  store ptr %4, ptr %11, align 8
  store ptr %5, ptr %12, align 8
  call void @llvm.lifetime.start.p0(i64 4, ptr %13) #4
  store i32 0, ptr %13, align 4
  %14 = load ptr, ptr %7, align 8
  %15 = load i32, ptr %8, align 4
  %16 = load ptr, ptr %9, align 8
  %17 = load ptr, ptr %10, align 8
  %18 = load ptr, ptr %11, align 8
  %19 = load ptr, ptr %12, align 8
  %20 = load i32, ptr @hf_butc_tc_dumpStat_spare2, align 4
  %21 = load i32, ptr %13, align 4
  %22 = call i32 @butc_dissect_uint32(ptr noundef %14, i32 noundef %15, ptr noundef %16, ptr noundef %17, ptr noundef %18, ptr noundef %19, i32 noundef %20, i32 noundef %21)
  store i32 %22, ptr %8, align 4
  %23 = load i32, ptr %8, align 4
  call void @llvm.lifetime.end.p0(i64 4, ptr %13) #4
  ret i32 %23
}

; Function Attrs: null_pointer_is_valid sspstrong uwtable
define internal i32 @butc_dissect_tc_dumpStat_spare1(ptr noundef %0, i32 noundef %1, ptr noundef %2, ptr noundef %3, ptr noundef %4, ptr noundef %5) #0 {
  %7 = alloca ptr, align 8
  %8 = alloca i32, align 4
  %9 = alloca ptr, align 8
  %10 = alloca ptr, align 8
  %11 = alloca ptr, align 8
  %12 = alloca ptr, align 8
  %13 = alloca i32, align 4
  store ptr %0, ptr %7, align 8
  store i32 %1, ptr %8, align 4
  store ptr %2, ptr %9, align 8
  store ptr %3, ptr %10, align 8
  store ptr %4, ptr %11, align 8
  store ptr %5, ptr %12, align 8
  call void @llvm.lifetime.start.p0(i64 4, ptr %13) #4
  store i32 0, ptr %13, align 4
  %14 = load ptr, ptr %7, align 8
  %15 = load i32, ptr %8, align 4
  %16 = load ptr, ptr %9, align 8
  %17 = load ptr, ptr %10, align 8
  %18 = load ptr, ptr %11, align 8
  %19 = load ptr, ptr %12, align 8
  %20 = load i32, ptr @hf_butc_tc_dumpStat_spare1, align 4
  %21 = load i32, ptr %13, align 4
  %22 = call i32 @butc_dissect_uint32(ptr noundef %14, i32 noundef %15, ptr noundef %16, ptr noundef %17, ptr noundef %18, ptr noundef %19, i32 noundef %20, i32 noundef %21)
  store i32 %22, ptr %8, align 4
  %23 = load i32, ptr %8, align 4
  call void @llvm.lifetime.end.p0(i64 4, ptr %13) #4
  ret i32 %23
}

; Function Attrs: null_pointer_is_valid sspstrong uwtable
define internal i32 @butc_dissect_tc_dumpStat_flags(ptr noundef %0, i32 noundef %1, ptr noundef %2, ptr noundef %3, ptr noundef %4, ptr noundef %5) #0 {
  %7 = alloca ptr, align 8
  %8 = alloca i32, align 4
  %9 = alloca ptr, align 8
  %10 = alloca ptr, align 8
  %11 = alloca ptr, align 8
  %12 = alloca ptr, align 8
  %13 = alloca i32, align 4
  store ptr %0, ptr %7, align 8
  store i32 %1, ptr %8, align 4
  store ptr %2, ptr %9, align 8
  store ptr %3, ptr %10, align 8
  store ptr %4, ptr %11, align 8
  store ptr %5, ptr %12, align 8
  call void @llvm.lifetime.start.p0(i64 4, ptr %13) #4
  store i32 0, ptr %13, align 4
  %14 = load ptr, ptr %7, align 8
  %15 = load i32, ptr %8, align 4
  %16 = load ptr, ptr %9, align 8
  %17 = load ptr, ptr %10, align 8
  %18 = load ptr, ptr %11, align 8
  %19 = load ptr, ptr %12, align 8
  %20 = load i32, ptr @hf_butc_tc_dumpStat_flags, align 4
  %21 = load i32, ptr %13, align 4
  %22 = call i32 @butc_dissect_int32(ptr noundef %14, i32 noundef %15, ptr noundef %16, ptr noundef %17, ptr noundef %18, ptr noundef %19, i32 noundef %20, i32 noundef %21)
  store i32 %22, ptr %8, align 4
  %23 = load i32, ptr %8, align 4
  call void @llvm.lifetime.end.p0(i64 4, ptr %13) #4
  ret i32 %23
}

; Function Attrs: null_pointer_is_valid sspstrong uwtable
define internal i32 @butc_dissect_tc_dumpStat_numVolErrs(ptr noundef %0, i32 noundef %1, ptr noundef %2, ptr noundef %3, ptr noundef %4, ptr noundef %5) #0 {
  %7 = alloca ptr, align 8
  %8 = alloca i32, align 4
  %9 = alloca ptr, align 8
  %10 = alloca ptr, align 8
  %11 = alloca ptr, align 8
  %12 = alloca ptr, align 8
  %13 = alloca i32, align 4
  store ptr %0, ptr %7, align 8
  store i32 %1, ptr %8, align 4
  store ptr %2, ptr %9, align 8
  store ptr %3, ptr %10, align 8
  store ptr %4, ptr %11, align 8
  store ptr %5, ptr %12, align 8
  call void @llvm.lifetime.start.p0(i64 4, ptr %13) #4
  store i32 0, ptr %13, align 4
  %14 = load ptr, ptr %7, align 8
  %15 = load i32, ptr %8, align 4
  %16 = load ptr, ptr %9, align 8
  %17 = load ptr, ptr %10, align 8
  %18 = load ptr, ptr %11, align 8
  %19 = load ptr, ptr %12, align 8
  %20 = load i32, ptr @hf_butc_tc_dumpStat_numVolErrs, align 4
  %21 = load i32, ptr %13, align 4
  %22 = call i32 @butc_dissect_int32(ptr noundef %14, i32 noundef %15, ptr noundef %16, ptr noundef %17, ptr noundef %18, ptr noundef %19, i32 noundef %20, i32 noundef %21)
  store i32 %22, ptr %8, align 4
  %23 = load i32, ptr %8, align 4
  call void @llvm.lifetime.end.p0(i64 4, ptr %13) #4
  ret i32 %23
}

; Function Attrs: null_pointer_is_valid sspstrong uwtable
define internal i32 @butc_dissect_tc_dumpStat_volumeBeingDumped(ptr noundef %0, i32 noundef %1, ptr noundef %2, ptr noundef %3, ptr noundef %4, ptr noundef %5) #0 {
  %7 = alloca ptr, align 8
  %8 = alloca i32, align 4
  %9 = alloca ptr, align 8
  %10 = alloca ptr, align 8
  %11 = alloca ptr, align 8
  %12 = alloca ptr, align 8
  %13 = alloca i32, align 4
  store ptr %0, ptr %7, align 8
  store i32 %1, ptr %8, align 4
  store ptr %2, ptr %9, align 8
  store ptr %3, ptr %10, align 8
  store ptr %4, ptr %11, align 8
  store ptr %5, ptr %12, align 8
  call void @llvm.lifetime.start.p0(i64 4, ptr %13) #4
  store i32 0, ptr %13, align 4
  %14 = load ptr, ptr %7, align 8
  %15 = load i32, ptr %8, align 4
  %16 = load ptr, ptr %9, align 8
  %17 = load ptr, ptr %10, align 8
  %18 = load ptr, ptr %11, align 8
  %19 = load ptr, ptr %12, align 8
  %20 = load i32, ptr @hf_butc_tc_dumpStat_volumeBeingDumped, align 4
  %21 = load i32, ptr %13, align 4
  %22 = call i32 @butc_dissect_udlong(ptr noundef %14, i32 noundef %15, ptr noundef %16, ptr noundef %17, ptr noundef %18, ptr noundef %19, i32 noundef %20, i32 noundef %21)
  store i32 %22, ptr %8, align 4
  %23 = load i32, ptr %8, align 4
  call void @llvm.lifetime.end.p0(i64 4, ptr %13) #4
  ret i32 %23
}

; Function Attrs: null_pointer_is_valid sspstrong uwtable
define internal i32 @butc_dissect_tc_dumpStat_bytesDumped(ptr noundef %0, i32 noundef %1, ptr noundef %2, ptr noundef %3, ptr noundef %4, ptr noundef %5) #0 {
  %7 = alloca ptr, align 8
  %8 = alloca i32, align 4
  %9 = alloca ptr, align 8
  %10 = alloca ptr, align 8
  %11 = alloca ptr, align 8
  %12 = alloca ptr, align 8
  %13 = alloca i32, align 4
  store ptr %0, ptr %7, align 8
  store i32 %1, ptr %8, align 4
  store ptr %2, ptr %9, align 8
  store ptr %3, ptr %10, align 8
  store ptr %4, ptr %11, align 8
  store ptr %5, ptr %12, align 8
  call void @llvm.lifetime.start.p0(i64 4, ptr %13) #4
  store i32 0, ptr %13, align 4
  %14 = load ptr, ptr %7, align 8
  %15 = load i32, ptr %8, align 4
  %16 = load ptr, ptr %9, align 8
  %17 = load ptr, ptr %10, align 8
  %18 = load ptr, ptr %11, align 8
  %19 = load ptr, ptr %12, align 8
  %20 = load i32, ptr @hf_butc_tc_dumpStat_bytesDumped, align 4
  %21 = load i32, ptr %13, align 4
  %22 = call i32 @butc_dissect_int32(ptr noundef %14, i32 noundef %15, ptr noundef %16, ptr noundef %17, ptr noundef %18, ptr noundef %19, i32 noundef %20, i32 noundef %21)
  store i32 %22, ptr %8, align 4
  %23 = load i32, ptr %8, align 4
  call void @llvm.lifetime.end.p0(i64 4, ptr %13) #4
  ret i32 %23
}

; Function Attrs: null_pointer_is_valid sspstrong uwtable
define internal i32 @butc_dissect_tc_dumpStat_dumpID(ptr noundef %0, i32 noundef %1, ptr noundef %2, ptr noundef %3, ptr noundef %4, ptr noundef %5) #0 {
  %7 = alloca ptr, align 8
  %8 = alloca i32, align 4
  %9 = alloca ptr, align 8
  %10 = alloca ptr, align 8
  %11 = alloca ptr, align 8
  %12 = alloca ptr, align 8
  %13 = alloca i32, align 4
  store ptr %0, ptr %7, align 8
  store i32 %1, ptr %8, align 4
  store ptr %2, ptr %9, align 8
  store ptr %3, ptr %10, align 8
  store ptr %4, ptr %11, align 8
  store ptr %5, ptr %12, align 8
  call void @llvm.lifetime.start.p0(i64 4, ptr %13) #4
  store i32 0, ptr %13, align 4
  %14 = load ptr, ptr %7, align 8
  %15 = load i32, ptr %8, align 4
  %16 = load ptr, ptr %9, align 8
  %17 = load ptr, ptr %10, align 8
  %18 = load ptr, ptr %11, align 8
  %19 = load ptr, ptr %12, align 8
  %20 = load i32, ptr @hf_butc_tc_dumpStat_dumpID, align 4
  %21 = load i32, ptr %13, align 4
  %22 = call i32 @butc_dissect_int32(ptr noundef %14, i32 noundef %15, ptr noundef %16, ptr noundef %17, ptr noundef %18, ptr noundef %19, i32 noundef %20, i32 noundef %21)
  store i32 %22, ptr %8, align 4
  %23 = load i32, ptr %8, align 4
  call void @llvm.lifetime.end.p0(i64 4, ptr %13) #4
  ret i32 %23
}

; Function Attrs: null_pointer_is_valid sspstrong uwtable
define hidden i32 @butc_dissect_tc_dumpStat(ptr noundef %0, i32 noundef %1, ptr noundef %2, ptr noundef %3, ptr noundef %4, ptr noundef %5, i32 noundef %6, i32 noundef %7) #0 {
  %9 = alloca ptr, align 8
  %10 = alloca i32, align 4
  %11 = alloca ptr, align 8
  %12 = alloca ptr, align 8
  %13 = alloca ptr, align 8
  %14 = alloca ptr, align 8
  %15 = alloca i32, align 4
  %16 = alloca i32, align 4
  %17 = alloca ptr, align 8
  %18 = alloca ptr, align 8
  %19 = alloca i32, align 4
  store ptr %0, ptr %9, align 8
  store i32 %1, ptr %10, align 4
  store ptr %2, ptr %11, align 8
  store ptr %3, ptr %12, align 8
  store ptr %4, ptr %13, align 8
  store ptr %5, ptr %14, align 8
  store i32 %6, ptr %15, align 4
  store i32 %7, ptr %16, align 4
  call void @llvm.lifetime.start.p0(i64 8, ptr %17) #4
  store ptr null, ptr %17, align 8
  call void @llvm.lifetime.start.p0(i64 8, ptr %18) #4
  store ptr null, ptr %18, align 8
  call void @llvm.lifetime.start.p0(i64 4, ptr %19) #4
  %20 = load ptr, ptr %13, align 8
  %21 = getelementptr inbounds nuw %struct._dcerpc_info, ptr %20, i32 0, i32 4
  %22 = load i8, ptr %21, align 1, !range !6, !noundef !7
  %23 = trunc i8 %22 to i1
  br i1 %23, label %33, label %24

24:                                               ; preds = %8
  %25 = load i32, ptr %10, align 4
  %26 = and i32 %25, 3
  %27 = icmp ne i32 %26, 0
  br i1 %27, label %28, label %32

28:                                               ; preds = %24
  %29 = load i32, ptr %10, align 4
  %30 = and i32 %29, -4
  %31 = add i32 %30, 4
  store i32 %31, ptr %10, align 4
  br label %32

32:                                               ; preds = %28, %24
  br label %33

33:                                               ; preds = %32, %8
  %34 = load i32, ptr %10, align 4
  store i32 %34, ptr %19, align 4
  %35 = load ptr, ptr %12, align 8
  %36 = icmp ne ptr %35, null
  br i1 %36, label %37, label %46

37:                                               ; preds = %33
  %38 = load ptr, ptr %12, align 8
  %39 = load i32, ptr %15, align 4
  %40 = load ptr, ptr %9, align 8
  %41 = load i32, ptr %10, align 4
  %42 = call ptr @proto_tree_add_item(ptr noundef %38, i32 noundef %39, ptr noundef %40, i32 noundef %41, i32 noundef -1, i32 noundef 0)
  store ptr %42, ptr %17, align 8
  %43 = load ptr, ptr %17, align 8
  %44 = load i32, ptr @ett_butc_tc_dumpStat, align 4
  %45 = call ptr @proto_item_add_subtree(ptr noundef %43, i32 noundef %44)
  store ptr %45, ptr %18, align 8
  br label %46

46:                                               ; preds = %37, %33
  %47 = load ptr, ptr %9, align 8
  %48 = load i32, ptr %10, align 4
  %49 = load ptr, ptr %11, align 8
  %50 = load ptr, ptr %18, align 8
  %51 = load ptr, ptr %13, align 8
  %52 = load ptr, ptr %14, align 8
  %53 = call i32 @butc_dissect_tc_dumpStat_dumpID(ptr noundef %47, i32 noundef %48, ptr noundef %49, ptr noundef %50, ptr noundef %51, ptr noundef %52)
  store i32 %53, ptr %10, align 4
  %54 = load ptr, ptr %9, align 8
  %55 = load i32, ptr %10, align 4
  %56 = load ptr, ptr %11, align 8
  %57 = load ptr, ptr %18, align 8
  %58 = load ptr, ptr %13, align 8
  %59 = load ptr, ptr %14, align 8
  %60 = call i32 @butc_dissect_tc_dumpStat_bytesDumped(ptr noundef %54, i32 noundef %55, ptr noundef %56, ptr noundef %57, ptr noundef %58, ptr noundef %59)
  store i32 %60, ptr %10, align 4
  %61 = load ptr, ptr %9, align 8
  %62 = load i32, ptr %10, align 4
  %63 = load ptr, ptr %11, align 8
  %64 = load ptr, ptr %18, align 8
  %65 = load ptr, ptr %13, align 8
  %66 = load ptr, ptr %14, align 8
  %67 = call i32 @butc_dissect_tc_dumpStat_volumeBeingDumped(ptr noundef %61, i32 noundef %62, ptr noundef %63, ptr noundef %64, ptr noundef %65, ptr noundef %66)
  store i32 %67, ptr %10, align 4
  %68 = load ptr, ptr %9, align 8
  %69 = load i32, ptr %10, align 4
  %70 = load ptr, ptr %11, align 8
  %71 = load ptr, ptr %18, align 8
  %72 = load ptr, ptr %13, align 8
  %73 = load ptr, ptr %14, align 8
  %74 = call i32 @butc_dissect_tc_dumpStat_numVolErrs(ptr noundef %68, i32 noundef %69, ptr noundef %70, ptr noundef %71, ptr noundef %72, ptr noundef %73)
  store i32 %74, ptr %10, align 4
  %75 = load ptr, ptr %9, align 8
  %76 = load i32, ptr %10, align 4
  %77 = load ptr, ptr %11, align 8
  %78 = load ptr, ptr %18, align 8
  %79 = load ptr, ptr %13, align 8
  %80 = load ptr, ptr %14, align 8
  %81 = call i32 @butc_dissect_tc_dumpStat_flags(ptr noundef %75, i32 noundef %76, ptr noundef %77, ptr noundef %78, ptr noundef %79, ptr noundef %80)
  store i32 %81, ptr %10, align 4
  %82 = load ptr, ptr %9, align 8
  %83 = load i32, ptr %10, align 4
  %84 = load ptr, ptr %11, align 8
  %85 = load ptr, ptr %18, align 8
  %86 = load ptr, ptr %13, align 8
  %87 = load ptr, ptr %14, align 8
  %88 = call i32 @butc_dissect_tc_dumpStat_spare1(ptr noundef %82, i32 noundef %83, ptr noundef %84, ptr noundef %85, ptr noundef %86, ptr noundef %87)
  store i32 %88, ptr %10, align 4
  %89 = load ptr, ptr %9, align 8
  %90 = load i32, ptr %10, align 4
  %91 = load ptr, ptr %11, align 8
  %92 = load ptr, ptr %18, align 8
  %93 = load ptr, ptr %13, align 8
  %94 = load ptr, ptr %14, align 8
  %95 = call i32 @butc_dissect_tc_dumpStat_spare2(ptr noundef %89, i32 noundef %90, ptr noundef %91, ptr noundef %92, ptr noundef %93, ptr noundef %94)
  store i32 %95, ptr %10, align 4
  %96 = load ptr, ptr %9, align 8
  %97 = load i32, ptr %10, align 4
  %98 = load ptr, ptr %11, align 8
  %99 = load ptr, ptr %18, align 8
  %100 = load ptr, ptr %13, align 8
  %101 = load ptr, ptr %14, align 8
  %102 = call i32 @butc_dissect_tc_dumpStat_spare3(ptr noundef %96, i32 noundef %97, ptr noundef %98, ptr noundef %99, ptr noundef %100, ptr noundef %101)
  store i32 %102, ptr %10, align 4
  %103 = load ptr, ptr %9, align 8
  %104 = load i32, ptr %10, align 4
  %105 = load ptr, ptr %11, align 8
  %106 = load ptr, ptr %18, align 8
  %107 = load ptr, ptr %13, align 8
  %108 = load ptr, ptr %14, align 8
  %109 = call i32 @butc_dissect_tc_dumpStat_spare4(ptr noundef %103, i32 noundef %104, ptr noundef %105, ptr noundef %106, ptr noundef %107, ptr noundef %108)
  store i32 %109, ptr %10, align 4
  %110 = load ptr, ptr %17, align 8
  %111 = load i32, ptr %10, align 4
  %112 = load i32, ptr %19, align 4
  %113 = sub i32 %111, %112
  call void @proto_item_set_len(ptr noundef %110, i32 noundef %113)
  %114 = load i32, ptr %10, align 4
  call void @llvm.lifetime.end.p0(i64 4, ptr %19) #4
  call void @llvm.lifetime.end.p0(i64 8, ptr %18) #4
  call void @llvm.lifetime.end.p0(i64 8, ptr %17) #4
  ret i32 %114
}